target datalayout = "e-m:e-p270:32:32-p271:32:32-p272:64:64-i64:64-i128:128-f80:128-n8:16:32:64-S128"
target triple = "x86_64-unknown-linux-gnu"

%"struct.std::pair" = type { i32, i32 }
%"class.polynomial::power" = type { %"struct.std::pair" }
%"class.polynomial::monomial" = type { i32, i32, i32, i32, i32, [0 x %"class.polynomial::power"] }

; Function Attrs: mustprogress nounwind uwtable
define linkonce_odr hidden noundef i32 @_ZNK10polynomial5power6degreeEv(ptr noundef nonnull align 4 dereferenceable(8) %this) #4 comdat align 2 {
entry:
  %this.addr = alloca ptr, align 8
  store ptr %this, ptr %this.addr, align 8
  %this1 = load ptr, ptr %this.addr, align 8
  %second = getelementptr inbounds %"struct.std::pair", ptr %this1, i32 0, i32 1
  %0 = load i32, ptr %second, align 4
  ret i32 %0
}

; Function Attrs: mustprogress nounwind uwtable
define linkonce_odr hidden noundef i32 @_ZNK10polynomial5power7get_varEv(ptr noundef nonnull align 4 dereferenceable(8) %this) #4 comdat align 2 {
entry:
  %this.addr = alloca ptr, align 8
  store ptr %this, ptr %this.addr, align 8
  %this1 = load ptr, ptr %this.addr, align 8
  %first = getelementptr inbounds %"struct.std::pair", ptr %this1, i32 0, i32 0
  %0 = load i32, ptr %first, align 4
  ret i32 %0
}

; Function Attrs: mustprogress nounwind uwtable
define linkonce_odr hidden noundef nonnull align 4 dereferenceable(8) ptr @_ZNK10polynomial8monomial9get_powerEj(ptr noundef nonnull align 4 dereferenceable(20) %this, i32 noundef %idx) #4 comdat align 2 {
entry:
  %this.addr = alloca ptr, align 8
  %idx.addr = alloca i32, align 4
  store ptr %this, ptr %this.addr, align 8
  store i32 %idx, ptr %idx.addr, align 4
  %this1 = load ptr, ptr %this.addr, align 8
  %m_powers = getelementptr inbounds %"class.polynomial::monomial", ptr %this1, i32 0, i32 5
  %0 = load i32, ptr %idx.addr, align 4
  %idxprom = zext i32 %0 to i64
  %arrayidx = getelementptr inbounds [0 x %"class.polynomial::power"], ptr %m_powers, i64 0, i64 %idxprom
  ret ptr %arrayidx
}

; Function Attrs: mustprogress nounwind uwtable
define linkonce_odr hidden noundef i32 @_ZNK10polynomial8monomial4sizeEv(ptr noundef nonnull align 4 dereferenceable(20) %this) #4 comdat align 2 {
entry:
  %this.addr = alloca ptr, align 8
  store ptr %this, ptr %this.addr, align 8
  %this1 = load ptr, ptr %this.addr, align 8
  %m_size = getelementptr inbounds %"class.polynomial::monomial", ptr %this1, i32 0, i32 3
  %0 = load i32, ptr %m_size, align 4
  ret i32 %0
}

; Function Attrs: mustprogress uwtable
define hidden noundef i32 @_ZN10polynomial12lex_compare2EPKNS_8monomialES2_j(ptr noundef %m1, ptr noundef %m2, i32 noundef %min_var) #5 {
entry:
  %retval = alloca i32, align 4
  %m1.addr = alloca ptr, align 8
  %m2.addr = alloca ptr, align 8
  %min_var.addr = alloca i32, align 4
  %sz1 = alloca i32, align 4
  %sz2 = alloca i32, align 4
  %idx1 = alloca i32, align 4
  %idx2 = alloca i32, align 4
  %min_var_degree1 = alloca i32, align 4
  %min_var_degree2 = alloca i32, align 4
  %pw1 = alloca ptr, align 8
  %pw2 = alloca ptr, align 8
  store ptr %m1, ptr %m1.addr, align 8
  store ptr %m2, ptr %m2.addr, align 8
  store i32 %min_var, ptr %min_var.addr, align 4
  %0 = load ptr, ptr %m1.addr, align 8
  %1 = load ptr, ptr %m2.addr, align 8
  %cmp = icmp eq ptr %0, %1
  br i1 %cmp, label %if.then, label %if.end

if.then:                                          ; preds = %entry
  store i32 0, ptr %retval, align 4
  br label %return

if.end:                                           ; preds = %entry
  %2 = load ptr, ptr %m1.addr, align 8
  %call = call noundef i32 @_ZNK10polynomial8monomial4sizeEv(ptr noundef nonnull align 4 dereferenceable(20) %2)
  store i32 %call, ptr %sz1, align 4
  %3 = load ptr, ptr %m2.addr, align 8
  %call1 = call noundef i32 @_ZNK10polynomial8monomial4sizeEv(ptr noundef nonnull align 4 dereferenceable(20) %3)
  store i32 %call1, ptr %sz2, align 4
  %4 = load i32, ptr %sz1, align 4
  %sub = sub nsw i32 %4, 1
  store i32 %sub, ptr %idx1, align 4
  %5 = load i32, ptr %sz2, align 4
  %sub2 = sub nsw i32 %5, 1
  store i32 %sub2, ptr %idx2, align 4
  store i32 0, ptr %min_var_degree1, align 4
  store i32 0, ptr %min_var_degree2, align 4
  br label %while.cond

while.cond:                                       ; preds = %if.then31, %if.then20, %if.end16, %if.end
  %6 = load i32, ptr %idx1, align 4
  %cmp3 = icmp sge i32 %6, 0
  br i1 %cmp3, label %land.rhs, label %land.end

land.rhs:                                         ; preds = %while.cond
  %7 = load i32, ptr %idx2, align 4
  %cmp4 = icmp sge i32 %7, 0
  br label %land.end

land.end:                                         ; preds = %land.rhs, %while.cond
  %8 = phi i1 [ false, %while.cond ], [ %cmp4, %land.rhs ]
  br i1 %8, label %while.body, label %while.end

while.body:                                       ; preds = %land.end
  %9 = load ptr, ptr %m1.addr, align 8
  %10 = load i32, ptr %idx1, align 4
  %call5 = call noundef nonnull align 4 dereferenceable(8) ptr @_ZNK10polynomial8monomial9get_powerEj(ptr noundef nonnull align 4 dereferenceable(20) %9, i32 noundef %10)
  store ptr %call5, ptr %pw1, align 8
  %11 = load ptr, ptr %m2.addr, align 8
  %12 = load i32, ptr %idx2, align 4
  %call6 = call noundef nonnull align 4 dereferenceable(8) ptr @_ZNK10polynomial8monomial9get_powerEj(ptr noundef nonnull align 4 dereferenceable(20) %11, i32 noundef %12)
  store ptr %call6, ptr %pw2, align 8
  %13 = load ptr, ptr %pw1, align 8
  %call7 = call noundef i32 @_ZNK10polynomial5power7get_varEv(ptr noundef nonnull align 4 dereferenceable(8) %13)
  %14 = load i32, ptr %min_var.addr, align 4
  %cmp8 = icmp eq i32 %call7, %14
  br i1 %cmp8, label %if.then9, label %if.end17

if.then9:                                         ; preds = %while.body
  %15 = load ptr, ptr %pw1, align 8
  %call10 = call noundef i32 @_ZNK10polynomial5power6degreeEv(ptr noundef nonnull align 4 dereferenceable(8) %15)
  store i32 %call10, ptr %min_var_degree1, align 4
  %16 = load i32, ptr %idx1, align 4
  %dec = add nsw i32 %16, -1
  store i32 %dec, ptr %idx1, align 4
  %17 = load ptr, ptr %pw2, align 8
  %call11 = call noundef i32 @_ZNK10polynomial5power7get_varEv(ptr noundef nonnull align 4 dereferenceable(8) %17)
  %18 = load i32, ptr %min_var.addr, align 4
  %cmp12 = icmp eq i32 %call11, %18
  br i1 %cmp12, label %if.then13, label %if.end16

if.then13:                                        ; preds = %if.then9
  %19 = load ptr, ptr %pw2, align 8
  %call14 = call noundef i32 @_ZNK10polynomial5power6degreeEv(ptr noundef nonnull align 4 dereferenceable(8) %19)
  store i32 %call14, ptr %min_var_degree2, align 4
  %20 = load i32, ptr %idx2, align 4
  %dec15 = add nsw i32 %20, -1
  store i32 %dec15, ptr %idx2, align 4
  br label %if.end16

if.end16:                                         ; preds = %if.then13, %if.then9
  br label %while.cond, !llvm.loop !9

if.end17:                                         ; preds = %while.body
  %21 = load ptr, ptr %pw2, align 8
  %call18 = call noundef i32 @_ZNK10polynomial5power7get_varEv(ptr noundef nonnull align 4 dereferenceable(8) %21)
  %22 = load i32, ptr %min_var.addr, align 4
  %cmp19 = icmp eq i32 %call18, %22
  br i1 %cmp19, label %if.then20, label %if.end23

if.then20:                                        ; preds = %if.end17
  %23 = load ptr, ptr %pw2, align 8
  %call21 = call noundef i32 @_ZNK10polynomial5power6degreeEv(ptr noundef nonnull align 4 dereferenceable(8) %23)
  store i32 %call21, ptr %min_var_degree2, align 4
  %24 = load i32, ptr %idx2, align 4
  %dec22 = add nsw i32 %24, -1
  store i32 %dec22, ptr %idx2, align 4
  br label %while.cond, !llvm.loop !9

if.end23:                                         ; preds = %if.end17
  %25 = load ptr, ptr %pw1, align 8
  %call24 = call noundef i32 @_ZNK10polynomial5power7get_varEv(ptr noundef nonnull align 4 dereferenceable(8) %25)
  %26 = load ptr, ptr %pw2, align 8
  %call25 = call noundef i32 @_ZNK10polynomial5power7get_varEv(ptr noundef nonnull align 4 dereferenceable(8) %26)
  %cmp26 = icmp eq i32 %call24, %call25
  br i1 %cmp26, label %if.then27, label %if.end38

if.then27:                                        ; preds = %if.end23
  %27 = load ptr, ptr %pw1, align 8
  %call28 = call noundef i32 @_ZNK10polynomial5power6degreeEv(ptr noundef nonnull align 4 dereferenceable(8) %27)
  %28 = load ptr, ptr %pw2, align 8
  %call29 = call noundef i32 @_ZNK10polynomial5power6degreeEv(ptr noundef nonnull align 4 dereferenceable(8) %28)
  %cmp30 = icmp eq i32 %call28, %call29
  br i1 %cmp30, label %if.then31, label %if.end34

if.then31:                                        ; preds = %if.then27
  %29 = load i32, ptr %idx1, align 4
  %dec32 = add nsw i32 %29, -1
  store i32 %dec32, ptr %idx1, align 4
  %30 = load i32, ptr %idx2, align 4
  %dec33 = add nsw i32 %30, -1
  store i32 %dec33, ptr %idx2, align 4
  br label %while.cond, !llvm.loop !9

if.end34:                                         ; preds = %if.then27
  %31 = load ptr, ptr %pw1, align 8
  %call35 = call noundef i32 @_ZNK10polynomial5power6degreeEv(ptr noundef nonnull align 4 dereferenceable(8) %31)
  %32 = load ptr, ptr %pw2, align 8
  %call36 = call noundef i32 @_ZNK10polynomial5power6degreeEv(ptr noundef nonnull align 4 dereferenceable(8) %32)
  %cmp37 = icmp ult i32 %call35, %call36
  %cond = select i1 %cmp37, i32 -1, i32 1
  store i32 %cond, ptr %retval, align 4
  br label %return

if.end38:                                         ; preds = %if.end23
  %33 = load ptr, ptr %pw1, align 8
  %call39 = call noundef i32 @_ZNK10polynomial5power7get_varEv(ptr noundef nonnull align 4 dereferenceable(8) %33)
  %34 = load ptr, ptr %pw2, align 8
  %call40 = call noundef i32 @_ZNK10polynomial5power7get_varEv(ptr noundef nonnull align 4 dereferenceable(8) %34)
  %cmp41 = icmp ugt i32 %call39, %call40
  %cond42 = select i1 %cmp41, i32 1, i32 -1
  store i32 %cond42, ptr %retval, align 4
  br label %return

while.end:                                        ; preds = %land.end
  %35 = load i32, ptr %idx1, align 4
  %36 = load i32, ptr %idx2, align 4
  %cmp43 = icmp eq i32 %35, %36
  br i1 %cmp43, label %if.then44, label %if.end47

if.then44:                                        ; preds = %while.end
  %37 = load i32, ptr %min_var_degree1, align 4
  %38 = load i32, ptr %min_var_degree2, align 4
  %cmp45 = icmp ult i32 %37, %38
  %cond46 = select i1 %cmp45, i32 -1, i32 1
  store i32 %cond46, ptr %retval, align 4
  br label %return

if.end47:                                         ; preds = %while.end
  %39 = load i32, ptr %idx1, align 4
  %cmp48 = icmp slt i32 %39, 0
  %cond49 = select i1 %cmp48, i32 -1, i32 1
  store i32 %cond49, ptr %retval, align 4
  br label %return

return:                                           ; preds = %if.end47, %if.then44, %if.end38, %if.end34, %if.then
  %40 = load i32, ptr %retval, align 4
  ret i32 %40
}