; Function Attrs: mustprogress nofree norecurse nosync nounwind willreturn memory(argmem: read) uwtable
define hidden noundef i32 @_ZN10polynomial12lex_compare2EPKNS_8monomialES2_j(ptr noundef readonly %m1, ptr noundef readonly %m2, i32 noundef %min_var) local_unnamed_addr #5 {
entry:
  %cmp = icmp eq ptr %m1, %m2
  br i1 %cmp, label %return, label %if.end

if.end:                                           ; preds = %entry
  %m_size.i = getelementptr inbounds i8, ptr %m1, i64 12
  %0 = load i32, ptr %m_size.i, align 4
  %m_size.i29 = getelementptr inbounds i8, ptr %m2, i64 12
  %1 = load i32, ptr %m_size.i29, align 4
  %sub = add nsw i32 %0, -1
  %sub2 = add nsw i32 %1, -1
  %cmp37487102 = icmp sgt i32 %0, 0
  %cmp47588103 = icmp sgt i32 %1, 0
  %2 = select i1 %cmp37487102, i1 %cmp47588103, i1 false
  br i1 %2, label %while.body.lr.ph.lr.ph.lr.ph, label %while.end

while.body.lr.ph.lr.ph.lr.ph:                     ; preds = %if.end
  %m_powers.i = getelementptr inbounds i8, ptr %m1, i64 20
  %m_powers.i30 = getelementptr inbounds i8, ptr %m2, i64 20
  br label %while.body.lr.ph.lr.ph

while.body.lr.ph.lr.ph:                           ; preds = %while.body.lr.ph.lr.ph.lr.ph, %if.end16
  %idx1.0.ph107 = phi i32 [ %sub, %while.body.lr.ph.lr.ph.lr.ph ], [ %dec, %if.end16 ]
  %min_var_degree2.0.ph106 = phi i32 [ 0, %while.body.lr.ph.lr.ph.lr.ph ], [ %min_var_degree2.1, %if.end16 ]
  %min_var_degree1.0.ph105 = phi i32 [ 0, %while.body.lr.ph.lr.ph.lr.ph ], [ %4, %if.end16 ]
  %idx2.0.ph104 = phi i32 [ %sub2, %while.body.lr.ph.lr.ph.lr.ph ], [ %idx2.1, %if.end16 ]
  br label %while.body.lr.ph

while.body.lr.ph:                                 ; preds = %while.body.lr.ph.lr.ph, %if.then20
  %idx1.0.ph4291 = phi i32 [ %idx1.0.ph107, %while.body.lr.ph.lr.ph ], [ %idx1.077, %if.then20 ]
  %min_var_degree2.0.ph4190 = phi i32 [ %min_var_degree2.0.ph106, %while.body.lr.ph.lr.ph ], [ %9, %if.then20 ]
  %idx2.0.ph4089 = phi i32 [ %idx2.0.ph104, %while.body.lr.ph.lr.ph ], [ %dec22, %if.then20 ]
  br label %while.body

while.body:                                       ; preds = %while.body.lr.ph, %if.then31
  %idx1.077 = phi i32 [ %idx1.0.ph4291, %while.body.lr.ph ], [ %dec32, %if.then31 ]
  %idx2.076 = phi i32 [ %idx2.0.ph4089, %while.body.lr.ph ], [ %dec33, %if.then31 ]
  %idxprom.i = zext nneg i32 %idx1.077 to i64
  %arrayidx.i = getelementptr inbounds [0 x %"class.polynomial::power"], ptr %m_powers.i, i64 0, i64 %idxprom.i
  %idxprom.i31 = zext nneg i32 %idx2.076 to i64
  %arrayidx.i32 = getelementptr inbounds [0 x %"class.polynomial::power"], ptr %m_powers.i30, i64 0, i64 %idxprom.i31
  %3 = load i32, ptr %arrayidx.i, align 4
  %cmp8 = icmp eq i32 %3, %min_var
  br i1 %cmp8, label %if.then9, label %if.end17

if.then9:                                         ; preds = %while.body
  %second.i = getelementptr inbounds i8, ptr %arrayidx.i, i64 4
  %4 = load i32, ptr %second.i, align 4
  %dec = add nsw i32 %idx1.077, -1
  %5 = load i32, ptr %arrayidx.i32, align 4
  %cmp12 = icmp eq i32 %5, %min_var
  br i1 %cmp12, label %if.then13, label %if.end16

if.then13:                                        ; preds = %if.then9
  %second.i33 = getelementptr inbounds i8, ptr %arrayidx.i32, i64 4
  %6 = load i32, ptr %second.i33, align 4
  %dec15 = add nsw i32 %idx2.076, -1
  br label %if.end16

if.end16:                                         ; preds = %if.then13, %if.then9
  %idx2.1 = phi i32 [ %dec15, %if.then13 ], [ %idx2.076, %if.then9 ]
  %min_var_degree2.1 = phi i32 [ %6, %if.then13 ], [ %min_var_degree2.0.ph4190, %if.then9 ]
  %cmp37487 = icmp ne i32 %idx1.077, 0
  %cmp47588 = icmp sgt i32 %idx2.1, -1
  %7 = select i1 %cmp37487, i1 %cmp47588, i1 false
  br i1 %7, label %while.body.lr.ph.lr.ph, label %while.end, !llvm.loop !9

if.end17:                                         ; preds = %while.body
  %8 = load i32, ptr %arrayidx.i32, align 4
  %cmp19 = icmp eq i32 %8, %min_var
  br i1 %cmp19, label %if.then20, label %if.end23

if.then20:                                        ; preds = %if.end17
  %second.i34 = getelementptr inbounds i8, ptr %arrayidx.i32, i64 4
  %9 = load i32, ptr %second.i34, align 4
  %dec22 = add nsw i32 %idx2.076, -1
  %cmp374 = icmp sgt i32 %idx1.077, -1
  %cmp475 = icmp sgt i32 %idx2.076, 0
  %10 = select i1 %cmp374, i1 %cmp475, i1 false
  br i1 %10, label %while.body.lr.ph, label %while.end, !llvm.loop !9

if.end23:                                         ; preds = %if.end17
  %cmp26 = icmp eq i32 %3, %8
  br i1 %cmp26, label %if.then27, label %if.end38

if.then27:                                        ; preds = %if.end23
  %second.i35 = getelementptr inbounds i8, ptr %arrayidx.i, i64 4
  %11 = load i32, ptr %second.i35, align 4
  %second.i36 = getelementptr inbounds i8, ptr %arrayidx.i32, i64 4
  %12 = load i32, ptr %second.i36, align 4
  %cmp30 = icmp eq i32 %11, %12
  br i1 %cmp30, label %if.then31, label %if.end34

if.then31:                                        ; preds = %if.then27
  %dec32 = add nsw i32 %idx1.077, -1
  %dec33 = add nsw i32 %idx2.076, -1
  %cmp3 = icmp sgt i32 %idx1.077, 0
  %cmp4 = icmp sgt i32 %idx2.076, 0
  %13 = select i1 %cmp3, i1 %cmp4, i1 false
  br i1 %13, label %while.body, label %while.end, !llvm.loop !9

if.end34:                                         ; preds = %if.then27
  %cmp37 = icmp ult i32 %11, %12
  %cond = select i1 %cmp37, i32 -1, i32 1
  br label %return

if.end38:                                         ; preds = %if.end23
  %cmp41 = icmp ugt i32 %3, %8
  %cond42 = select i1 %cmp41, i32 1, i32 -1
  br label %return

while.end:                                        ; preds = %if.end16, %if.then20, %if.then31, %if.end
  %min_var_degree1.0.ph.lcssa73 = phi i32 [ 0, %if.end ], [ %min_var_degree1.0.ph105, %if.then31 ], [ %min_var_degree1.0.ph105, %if.then20 ], [ %4, %if.end16 ]
  %min_var_degree2.0.ph41.lcssa71 = phi i32 [ 0, %if.end ], [ %min_var_degree2.0.ph4190, %if.then31 ], [ %9, %if.then20 ], [ %min_var_degree2.1, %if.end16 ]
  %idx2.0.lcssa = phi i32 [ %sub2, %if.end ], [ %dec33, %if.then31 ], [ %dec22, %if.then20 ], [ %idx2.1, %if.end16 ]
  %idx1.0.lcssa = phi i32 [ %sub, %if.end ], [ %dec32, %if.then31 ], [ %idx1.077, %if.then20 ], [ %dec, %if.end16 ]
  %cmp3.lcssa = phi i1 [ %cmp37487102, %if.end ], [ %cmp3, %if.then31 ], [ %cmp374, %if.then20 ], [ %cmp37487, %if.end16 ]
  %cmp43 = icmp eq i32 %idx1.0.lcssa, %idx2.0.lcssa
  br i1 %cmp43, label %if.then44, label %if.end47

if.then44:                                        ; preds = %while.end
  %cmp45 = icmp ult i32 %min_var_degree1.0.ph.lcssa73, %min_var_degree2.0.ph41.lcssa71
  %cond46 = select i1 %cmp45, i32 -1, i32 1
  br label %return

if.end47:                                         ; preds = %while.end
  %cond49 = select i1 %cmp3.lcssa, i32 1, i32 -1
  br label %return

return:                                           ; preds = %entry, %if.end47, %if.then44, %if.end38, %if.end34
  %retval.0 = phi i32 [ %cond, %if.end34 ], [ %cond42, %if.end38 ], [ %cond46, %if.then44 ], [ %cond49, %if.end47 ], [ 0, %entry ]
  ret i32 %retval.0
}